
/home/meowth/ysyx/ysyx-workbench/am-kernels/tests/cpu-tests/build/crc32-riscv32e-ysyx-soc.elf:     file format elf32-littleriscv


Disassembly of section .text:

20000000 <_start>:
20000000:	00000413          	li	s0,0
20000004:	ef001117          	auipc	sp,0xef001
20000008:	c0c10113          	addi	sp,sp,-1012 # f000c10 <_end>
2000000c:	180000ef          	jal	ra,2000018c <_trm_init>

20000010 <check>:
20000010:	00050463          	beqz	a0,20000018 <check+0x8>
20000014:	00008067          	ret
20000018:	ff410113          	addi	sp,sp,-12
2000001c:	00100513          	li	a0,1
20000020:	00112423          	sw	ra,8(sp)
20000024:	160000ef          	jal	ra,20000184 <halt>

20000028 <rc_crc32>:
20000028:	ff810113          	addi	sp,sp,-8
2000002c:	00812223          	sw	s0,4(sp)
20000030:	ef000417          	auipc	s0,0xef000
20000034:	3d040413          	addi	s0,s0,976 # f000400 <have_table.1>
20000038:	00042303          	lw	t1,0(s0)
2000003c:	00912023          	sw	s1,0(sp)
20000040:	04031863          	bnez	t1,20000090 <rc_crc32+0x68>
20000044:	edb882b7          	lui	t0,0xedb88
20000048:	ef000397          	auipc	t2,0xef000
2000004c:	fb838393          	addi	t2,t2,-72 # f000000 <table.0>
20000050:	32028293          	addi	t0,t0,800 # edb88320 <_erodata+0xcdb88108>
20000054:	10000493          	li	s1,256
20000058:	00030793          	mv	a5,t1
2000005c:	00800713          	li	a4,8
20000060:	0017f693          	andi	a3,a5,1
20000064:	fff70713          	addi	a4,a4,-1
20000068:	0017d793          	srli	a5,a5,0x1
2000006c:	00068463          	beqz	a3,20000074 <rc_crc32+0x4c>
20000070:	0057c7b3          	xor	a5,a5,t0
20000074:	fe0716e3          	bnez	a4,20000060 <rc_crc32+0x38>
20000078:	00f3a023          	sw	a5,0(t2)
2000007c:	00130313          	addi	t1,t1,1
20000080:	00438393          	addi	t2,t2,4
20000084:	fc931ae3          	bne	t1,s1,20000058 <rc_crc32+0x30>
20000088:	00100793          	li	a5,1
2000008c:	00f42023          	sw	a5,0(s0)
20000090:	00c58633          	add	a2,a1,a2
20000094:	fff54713          	not	a4,a0
20000098:	02c5fc63          	bgeu	a1,a2,200000d0 <rc_crc32+0xa8>
2000009c:	ef000517          	auipc	a0,0xef000
200000a0:	f6450513          	addi	a0,a0,-156 # f000000 <table.0>
200000a4:	0005c683          	lbu	a3,0(a1)
200000a8:	0ff77793          	zext.b	a5,a4
200000ac:	00158593          	addi	a1,a1,1
200000b0:	00d7c7b3          	xor	a5,a5,a3
200000b4:	00279793          	slli	a5,a5,0x2
200000b8:	00f507b3          	add	a5,a0,a5
200000bc:	0007a783          	lw	a5,0(a5)
200000c0:	00875713          	srli	a4,a4,0x8
200000c4:	00f74733          	xor	a4,a4,a5
200000c8:	fcb61ee3          	bne	a2,a1,200000a4 <rc_crc32+0x7c>
200000cc:	fff74513          	not	a0,a4
200000d0:	00412403          	lw	s0,4(sp)
200000d4:	00012483          	lw	s1,0(sp)
200000d8:	00810113          	addi	sp,sp,8
200000dc:	00008067          	ret

200000e0 <main>:
200000e0:	ff410113          	addi	sp,sp,-12
200000e4:	02b00613          	li	a2,43
200000e8:	00000597          	auipc	a1,0x0
200000ec:	0c458593          	addi	a1,a1,196 # 200001ac <_etext>
200000f0:	00000513          	li	a0,0
200000f4:	00112423          	sw	ra,8(sp)
200000f8:	f31ff0ef          	jal	ra,20000028 <rc_crc32>
200000fc:	beb067b7          	lui	a5,0xbeb06
20000100:	cc778793          	addi	a5,a5,-825 # beb05cc7 <_erodata+0x9eb05aaf>
20000104:	00f50533          	add	a0,a0,a5
20000108:	00153513          	seqz	a0,a0
2000010c:	f05ff0ef          	jal	ra,20000010 <check>
20000110:	00812083          	lw	ra,8(sp)
20000114:	00000513          	li	a0,0
20000118:	00c10113          	addi	sp,sp,12
2000011c:	00008067          	ret

20000120 <bootloader_load>:
20000120:	ef000797          	auipc	a5,0xef000
20000124:	ee078793          	addi	a5,a5,-288 # f000000 <table.0>
20000128:	ef000717          	auipc	a4,0xef000
2000012c:	ed870713          	addi	a4,a4,-296 # f000000 <table.0>
20000130:	40e78633          	sub	a2,a5,a4
20000134:	02e78263          	beq	a5,a4,20000158 <bootloader_load+0x38>
20000138:	00000797          	auipc	a5,0x0
2000013c:	0e078793          	addi	a5,a5,224 # 20000218 <_erodata>
20000140:	00f60633          	add	a2,a2,a5
20000144:	0007c683          	lbu	a3,0(a5)
20000148:	00178793          	addi	a5,a5,1
2000014c:	00170713          	addi	a4,a4,1
20000150:	fed70fa3          	sb	a3,-1(a4)
20000154:	fec798e3          	bne	a5,a2,20000144 <bootloader_load+0x24>
20000158:	ef000697          	auipc	a3,0xef000
2000015c:	2ac68693          	addi	a3,a3,684 # f000404 <_bss_end>
20000160:	ef000797          	auipc	a5,0xef000
20000164:	ea078793          	addi	a5,a5,-352 # f000000 <table.0>
20000168:	40f68733          	sub	a4,a3,a5
2000016c:	00f68a63          	beq	a3,a5,20000180 <bootloader_load+0x60>
20000170:	00e78733          	add	a4,a5,a4
20000174:	00078023          	sb	zero,0(a5)
20000178:	00178793          	addi	a5,a5,1
2000017c:	fef71ce3          	bne	a4,a5,20000174 <bootloader_load+0x54>
20000180:	00008067          	ret

20000184 <halt>:
20000184:	00100073          	ebreak
20000188:	0000006f          	j	20000188 <halt+0x4>

2000018c <_trm_init>:
2000018c:	ff410113          	addi	sp,sp,-12
20000190:	00112423          	sw	ra,8(sp)
20000194:	f8dff0ef          	jal	ra,20000120 <bootloader_load>
20000198:	00000517          	auipc	a0,0x0
2000019c:	04050513          	addi	a0,a0,64 # 200001d8 <mainargs>
200001a0:	f41ff0ef          	jal	ra,200000e0 <main>
200001a4:	00100073          	ebreak
200001a8:	0000006f          	j	200001a8 <_trm_init+0x1c>
