
/home/meowth/ysyx/ysyx-workbench/am-kernels/tests/cpu-tests/build/goldbach-riscv32e-ysyx-soc.elf:     file format elf32-littleriscv


Disassembly of section .text:

20000000 <_start>:
20000000:	00000413          	li	s0,0
20000004:	ef000117          	auipc	sp,0xef000
20000008:	7fc10113          	addi	sp,sp,2044 # f000800 <_end>
2000000c:	1bc000ef          	jal	ra,200001c8 <_trm_init>

20000010 <check>:
20000010:	00050463          	beqz	a0,20000018 <check+0x8>
20000014:	00008067          	ret
20000018:	ff410113          	addi	sp,sp,-12
2000001c:	00100513          	li	a0,1
20000020:	00112423          	sw	ra,8(sp)
20000024:	19c000ef          	jal	ra,200001c0 <halt>

20000028 <goldbach>:
20000028:	fe810113          	addi	sp,sp,-24
2000002c:	00112a23          	sw	ra,20(sp)
20000030:	00812823          	sw	s0,16(sp)
20000034:	00912623          	sw	s1,12(sp)
20000038:	00a12423          	sw	a0,8(sp)
2000003c:	00200793          	li	a5,2
20000040:	0aa7dc63          	bge	a5,a0,200000f8 <goldbach+0xd0>
20000044:	ffe50793          	addi	a5,a0,-2
20000048:	00f12223          	sw	a5,4(sp)
2000004c:	00200493          	li	s1,2
20000050:	00200793          	li	a5,2
20000054:	02f48663          	beq	s1,a5,20000080 <goldbach+0x58>
20000058:	0014f793          	andi	a5,s1,1
2000005c:	08078263          	beqz	a5,200000e0 <goldbach+0xb8>
20000060:	00200413          	li	s0,2
20000064:	00c0006f          	j	20000070 <goldbach+0x48>
20000068:	204000ef          	jal	ra,2000026c <__modsi3>
2000006c:	06050a63          	beqz	a0,200000e0 <goldbach+0xb8>
20000070:	00140413          	addi	s0,s0,1
20000074:	00048513          	mv	a0,s1
20000078:	00040593          	mv	a1,s0
2000007c:	fe9416e3          	bne	s0,s1,20000068 <goldbach+0x40>
20000080:	00412783          	lw	a5,4(sp)
20000084:	00100713          	li	a4,1
20000088:	04e78c63          	beq	a5,a4,200000e0 <goldbach+0xb8>
2000008c:	00200713          	li	a4,2
20000090:	02e78c63          	beq	a5,a4,200000c8 <goldbach+0xa0>
20000094:	0017f793          	andi	a5,a5,1
20000098:	04078463          	beqz	a5,200000e0 <goldbach+0xb8>
2000009c:	00200793          	li	a5,2
200000a0:	0140006f          	j	200000b4 <goldbach+0x8c>
200000a4:	00f12023          	sw	a5,0(sp)
200000a8:	1c4000ef          	jal	ra,2000026c <__modsi3>
200000ac:	00012783          	lw	a5,0(sp)
200000b0:	02050863          	beqz	a0,200000e0 <goldbach+0xb8>
200000b4:	00412703          	lw	a4,4(sp)
200000b8:	00178793          	addi	a5,a5,1
200000bc:	00078593          	mv	a1,a5
200000c0:	00070513          	mv	a0,a4
200000c4:	fef710e3          	bne	a4,a5,200000a4 <goldbach+0x7c>
200000c8:	01412083          	lw	ra,20(sp)
200000cc:	01012403          	lw	s0,16(sp)
200000d0:	00c12483          	lw	s1,12(sp)
200000d4:	00100513          	li	a0,1
200000d8:	01810113          	addi	sp,sp,24
200000dc:	00008067          	ret
200000e0:	00412783          	lw	a5,4(sp)
200000e4:	00148493          	addi	s1,s1,1
200000e8:	fff78793          	addi	a5,a5,-1
200000ec:	00f12223          	sw	a5,4(sp)
200000f0:	00812783          	lw	a5,8(sp)
200000f4:	f4979ee3          	bne	a5,s1,20000050 <goldbach+0x28>
200000f8:	01412083          	lw	ra,20(sp)
200000fc:	01012403          	lw	s0,16(sp)
20000100:	00c12483          	lw	s1,12(sp)
20000104:	00000513          	li	a0,0
20000108:	01810113          	addi	sp,sp,24
2000010c:	00008067          	ret

20000110 <main>:
20000110:	ff410113          	addi	sp,sp,-12
20000114:	00812223          	sw	s0,4(sp)
20000118:	00912023          	sw	s1,0(sp)
2000011c:	00112423          	sw	ra,8(sp)
20000120:	00400413          	li	s0,4
20000124:	02000493          	li	s1,32
20000128:	00040513          	mv	a0,s0
2000012c:	efdff0ef          	jal	ra,20000028 <goldbach>
20000130:	fff50513          	addi	a0,a0,-1
20000134:	00240413          	addi	s0,s0,2
20000138:	00153513          	seqz	a0,a0
2000013c:	ed5ff0ef          	jal	ra,20000010 <check>
20000140:	fe9414e3          	bne	s0,s1,20000128 <main+0x18>
20000144:	00812083          	lw	ra,8(sp)
20000148:	00412403          	lw	s0,4(sp)
2000014c:	00012483          	lw	s1,0(sp)
20000150:	00000513          	li	a0,0
20000154:	00c10113          	addi	sp,sp,12
20000158:	00008067          	ret

2000015c <bootloader_load>:
2000015c:	ef000797          	auipc	a5,0xef000
20000160:	ea478793          	addi	a5,a5,-348 # f000000 <_bss_end>
20000164:	ef000717          	auipc	a4,0xef000
20000168:	e9c70713          	addi	a4,a4,-356 # f000000 <_bss_end>
2000016c:	40e78633          	sub	a2,a5,a4
20000170:	02e78263          	beq	a5,a4,20000194 <bootloader_load+0x38>
20000174:	00000797          	auipc	a5,0x0
20000178:	16878793          	addi	a5,a5,360 # 200002dc <_erodata>
2000017c:	00f60633          	add	a2,a2,a5
20000180:	0007c683          	lbu	a3,0(a5)
20000184:	00178793          	addi	a5,a5,1
20000188:	00170713          	addi	a4,a4,1
2000018c:	fed70fa3          	sb	a3,-1(a4)
20000190:	fec798e3          	bne	a5,a2,20000180 <bootloader_load+0x24>
20000194:	ef000697          	auipc	a3,0xef000
20000198:	e6c68693          	addi	a3,a3,-404 # f000000 <_bss_end>
2000019c:	ef000797          	auipc	a5,0xef000
200001a0:	e6478793          	addi	a5,a5,-412 # f000000 <_bss_end>
200001a4:	40f68733          	sub	a4,a3,a5
200001a8:	00f68a63          	beq	a3,a5,200001bc <bootloader_load+0x60>
200001ac:	00e78733          	add	a4,a5,a4
200001b0:	00078023          	sb	zero,0(a5)
200001b4:	00178793          	addi	a5,a5,1
200001b8:	fef71ce3          	bne	a4,a5,200001b0 <bootloader_load+0x54>
200001bc:	00008067          	ret

200001c0 <halt>:
200001c0:	00100073          	ebreak
200001c4:	0000006f          	j	200001c4 <halt+0x4>

200001c8 <_trm_init>:
200001c8:	ff410113          	addi	sp,sp,-12
200001cc:	00112423          	sw	ra,8(sp)
200001d0:	f8dff0ef          	jal	ra,2000015c <bootloader_load>
200001d4:	00000517          	auipc	a0,0x0
200001d8:	0c850513          	addi	a0,a0,200 # 2000029c <_etext>
200001dc:	f35ff0ef          	jal	ra,20000110 <main>
200001e0:	00100073          	ebreak
200001e4:	0000006f          	j	200001e4 <_trm_init+0x1c>

200001e8 <__divsi3>:
200001e8:	06054063          	bltz	a0,20000248 <__umodsi3+0x10>
200001ec:	0605c663          	bltz	a1,20000258 <__umodsi3+0x20>

200001f0 <__hidden___udivsi3>:
200001f0:	00058613          	mv	a2,a1
200001f4:	00050593          	mv	a1,a0
200001f8:	fff00513          	li	a0,-1
200001fc:	02060c63          	beqz	a2,20000234 <__hidden___udivsi3+0x44>
20000200:	00100693          	li	a3,1
20000204:	00b67a63          	bgeu	a2,a1,20000218 <__hidden___udivsi3+0x28>
20000208:	00c05863          	blez	a2,20000218 <__hidden___udivsi3+0x28>
2000020c:	00161613          	slli	a2,a2,0x1
20000210:	00169693          	slli	a3,a3,0x1
20000214:	feb66ae3          	bltu	a2,a1,20000208 <__hidden___udivsi3+0x18>
20000218:	00000513          	li	a0,0
2000021c:	00c5e663          	bltu	a1,a2,20000228 <__hidden___udivsi3+0x38>
20000220:	40c585b3          	sub	a1,a1,a2
20000224:	00d56533          	or	a0,a0,a3
20000228:	0016d693          	srli	a3,a3,0x1
2000022c:	00165613          	srli	a2,a2,0x1
20000230:	fe0696e3          	bnez	a3,2000021c <__hidden___udivsi3+0x2c>
20000234:	00008067          	ret

20000238 <__umodsi3>:
20000238:	00008293          	mv	t0,ra
2000023c:	fb5ff0ef          	jal	ra,200001f0 <__hidden___udivsi3>
20000240:	00058513          	mv	a0,a1
20000244:	00028067          	jr	t0
20000248:	40a00533          	neg	a0,a0
2000024c:	00b04863          	bgtz	a1,2000025c <__umodsi3+0x24>
20000250:	40b005b3          	neg	a1,a1
20000254:	f9dff06f          	j	200001f0 <__hidden___udivsi3>
20000258:	40b005b3          	neg	a1,a1
2000025c:	00008293          	mv	t0,ra
20000260:	f91ff0ef          	jal	ra,200001f0 <__hidden___udivsi3>
20000264:	40a00533          	neg	a0,a0
20000268:	00028067          	jr	t0

2000026c <__modsi3>:
2000026c:	00008293          	mv	t0,ra
20000270:	0005ca63          	bltz	a1,20000284 <__modsi3+0x18>
20000274:	00054c63          	bltz	a0,2000028c <__modsi3+0x20>
20000278:	f79ff0ef          	jal	ra,200001f0 <__hidden___udivsi3>
2000027c:	00058513          	mv	a0,a1
20000280:	00028067          	jr	t0
20000284:	40b005b3          	neg	a1,a1
20000288:	fe0558e3          	bgez	a0,20000278 <__modsi3+0xc>
2000028c:	40a00533          	neg	a0,a0
20000290:	f61ff0ef          	jal	ra,200001f0 <__hidden___udivsi3>
20000294:	40b00533          	neg	a0,a1
20000298:	00028067          	jr	t0
