
/home/meowth/ysyx/ysyx-workbench/am-kernels/tests/cpu-tests/build/load-store-riscv32e-ysyx-soc.elf:     file format elf32-littleriscv


Disassembly of section .text:

20000000 <_start>:
20000000:	00000413          	li	s0,0
20000004:	ef001117          	auipc	sp,0xef001
20000008:	87c10113          	addi	sp,sp,-1924 # f000880 <_end>
2000000c:	238000ef          	jal	ra,20000244 <_trm_init>

20000010 <check>:
20000010:	00050463          	beqz	a0,20000018 <check+0x8>
20000014:	00008067          	ret
20000018:	ff410113          	addi	sp,sp,-12
2000001c:	00100513          	li	a0,1
20000020:	00112423          	sw	ra,8(sp)
20000024:	218000ef          	jal	ra,2000023c <halt>

20000028 <main>:
20000028:	fec10113          	addi	sp,sp,-20
2000002c:	00912423          	sw	s1,8(sp)
20000030:	ef000497          	auipc	s1,0xef000
20000034:	02048493          	addi	s1,s1,32 # f000050 <mem>
20000038:	00812623          	sw	s0,12(sp)
2000003c:	00112823          	sw	ra,16(sp)
20000040:	ef000697          	auipc	a3,0xef000
20000044:	fc068693          	addi	a3,a3,-64 # f000000 <lh_ans>
20000048:	00048413          	mv	s0,s1
2000004c:	00048713          	mv	a4,s1
20000050:	00071503          	lh	a0,0(a4)
20000054:	0006a603          	lw	a2,0(a3)
20000058:	00270713          	addi	a4,a4,2
2000005c:	00468693          	addi	a3,a3,4
20000060:	40c50533          	sub	a0,a0,a2
20000064:	00153513          	seqz	a0,a0
20000068:	00e12223          	sw	a4,4(sp)
2000006c:	00d12023          	sw	a3,0(sp)
20000070:	fa1ff0ef          	jal	ra,20000010 <check>
20000074:	00412703          	lw	a4,4(sp)
20000078:	ef000797          	auipc	a5,0xef000
2000007c:	fe878793          	addi	a5,a5,-24 # f000060 <sh_ans>
20000080:	00012683          	lw	a3,0(sp)
20000084:	fcf716e3          	bne	a4,a5,20000050 <main+0x28>
20000088:	ef000717          	auipc	a4,0xef000
2000008c:	f9870713          	addi	a4,a4,-104 # f000020 <lhu_ans>
20000090:	00072683          	lw	a3,0(a4)
20000094:	0004d503          	lhu	a0,0(s1)
20000098:	00470713          	addi	a4,a4,4
2000009c:	00e12023          	sw	a4,0(sp)
200000a0:	40d50533          	sub	a0,a0,a3
200000a4:	00153513          	seqz	a0,a0
200000a8:	f69ff0ef          	jal	ra,20000010 <check>
200000ac:	00248493          	addi	s1,s1,2
200000b0:	ef000797          	auipc	a5,0xef000
200000b4:	fb078793          	addi	a5,a5,-80 # f000060 <sh_ans>
200000b8:	00012703          	lw	a4,0(sp)
200000bc:	fcf49ae3          	bne	s1,a5,20000090 <main+0x68>
200000c0:	00244683          	lbu	a3,2(s0)
200000c4:	00144603          	lbu	a2,1(s0)
200000c8:	00344703          	lbu	a4,3(s0)
200000cc:	00444783          	lbu	a5,4(s0)
200000d0:	ef000497          	auipc	s1,0xef000
200000d4:	f7048493          	addi	s1,s1,-144 # f000040 <lwlr_ans>
200000d8:	00869693          	slli	a3,a3,0x8
200000dc:	00c6e6b3          	or	a3,a3,a2
200000e0:	0004a503          	lw	a0,0(s1)
200000e4:	01071713          	slli	a4,a4,0x10
200000e8:	00d76733          	or	a4,a4,a3
200000ec:	01879793          	slli	a5,a5,0x18
200000f0:	00e7e7b3          	or	a5,a5,a4
200000f4:	40f50533          	sub	a0,a0,a5
200000f8:	00153513          	seqz	a0,a0
200000fc:	f15ff0ef          	jal	ra,20000010 <check>
20000100:	00644683          	lbu	a3,6(s0)
20000104:	00544603          	lbu	a2,5(s0)
20000108:	00744703          	lbu	a4,7(s0)
2000010c:	00844783          	lbu	a5,8(s0)
20000110:	00869693          	slli	a3,a3,0x8
20000114:	00c6e6b3          	or	a3,a3,a2
20000118:	0044a503          	lw	a0,4(s1)
2000011c:	01071713          	slli	a4,a4,0x10
20000120:	00d76733          	or	a4,a4,a3
20000124:	01879793          	slli	a5,a5,0x18
20000128:	00e7e7b3          	or	a5,a5,a4
2000012c:	40f50533          	sub	a0,a0,a5
20000130:	00153513          	seqz	a0,a0
20000134:	eddff0ef          	jal	ra,20000010 <check>
20000138:	00a44683          	lbu	a3,10(s0)
2000013c:	00944603          	lbu	a2,9(s0)
20000140:	00b44703          	lbu	a4,11(s0)
20000144:	00c44783          	lbu	a5,12(s0)
20000148:	00869693          	slli	a3,a3,0x8
2000014c:	00c6e6b3          	or	a3,a3,a2
20000150:	0084a503          	lw	a0,8(s1)
20000154:	01071713          	slli	a4,a4,0x10
20000158:	00d76733          	or	a4,a4,a3
2000015c:	01879793          	slli	a5,a5,0x18
20000160:	00e7e7b3          	or	a5,a5,a4
20000164:	40f50533          	sub	a0,a0,a5
20000168:	00153513          	seqz	a0,a0
2000016c:	ea5ff0ef          	jal	ra,20000010 <check>
20000170:	ef000697          	auipc	a3,0xef000
20000174:	ef068693          	addi	a3,a3,-272 # f000060 <sh_ans>
20000178:	00100493          	li	s1,1
2000017c:	00100793          	li	a5,1
20000180:	009797b3          	sll	a5,a5,s1
20000184:	0006a503          	lw	a0,0(a3)
20000188:	fff7c793          	not	a5,a5
2000018c:	01079793          	slli	a5,a5,0x10
20000190:	0107d793          	srli	a5,a5,0x10
20000194:	40f50533          	sub	a0,a0,a5
20000198:	00940633          	add	a2,s0,s1
2000019c:	fef61fa3          	sh	a5,-1(a2)
200001a0:	00153513          	seqz	a0,a0
200001a4:	00d12023          	sw	a3,0(sp)
200001a8:	e69ff0ef          	jal	ra,20000010 <check>
200001ac:	00012683          	lw	a3,0(sp)
200001b0:	00248493          	addi	s1,s1,2
200001b4:	01100793          	li	a5,17
200001b8:	00468693          	addi	a3,a3,4
200001bc:	fcf490e3          	bne	s1,a5,2000017c <main+0x154>
200001c0:	01012083          	lw	ra,16(sp)
200001c4:	00c12403          	lw	s0,12(sp)
200001c8:	00812483          	lw	s1,8(sp)
200001cc:	00000513          	li	a0,0
200001d0:	01410113          	addi	sp,sp,20
200001d4:	00008067          	ret

200001d8 <bootloader_load>:
200001d8:	ef000797          	auipc	a5,0xef000
200001dc:	ea878793          	addi	a5,a5,-344 # f000080 <_bss_end>
200001e0:	ef000717          	auipc	a4,0xef000
200001e4:	e2070713          	addi	a4,a4,-480 # f000000 <lh_ans>
200001e8:	40e78633          	sub	a2,a5,a4
200001ec:	02e78263          	beq	a5,a4,20000210 <bootloader_load+0x38>
200001f0:	00000797          	auipc	a5,0x0
200001f4:	0b478793          	addi	a5,a5,180 # 200002a4 <_erodata>
200001f8:	00f60633          	add	a2,a2,a5
200001fc:	0007c683          	lbu	a3,0(a5)
20000200:	00178793          	addi	a5,a5,1
20000204:	00170713          	addi	a4,a4,1
20000208:	fed70fa3          	sb	a3,-1(a4)
2000020c:	fec798e3          	bne	a5,a2,200001fc <bootloader_load+0x24>
20000210:	ef000697          	auipc	a3,0xef000
20000214:	e7068693          	addi	a3,a3,-400 # f000080 <_bss_end>
20000218:	ef000797          	auipc	a5,0xef000
2000021c:	e6878793          	addi	a5,a5,-408 # f000080 <_bss_end>
20000220:	40f68733          	sub	a4,a3,a5
20000224:	00f68a63          	beq	a3,a5,20000238 <bootloader_load+0x60>
20000228:	00e78733          	add	a4,a5,a4
2000022c:	00078023          	sb	zero,0(a5)
20000230:	00178793          	addi	a5,a5,1
20000234:	fef71ce3          	bne	a4,a5,2000022c <bootloader_load+0x54>
20000238:	00008067          	ret

2000023c <halt>:
2000023c:	00100073          	ebreak
20000240:	0000006f          	j	20000240 <halt+0x4>

20000244 <_trm_init>:
20000244:	ff410113          	addi	sp,sp,-12
20000248:	00112423          	sw	ra,8(sp)
2000024c:	f8dff0ef          	jal	ra,200001d8 <bootloader_load>
20000250:	00000517          	auipc	a0,0x0
20000254:	01450513          	addi	a0,a0,20 # 20000264 <_etext>
20000258:	dd1ff0ef          	jal	ra,20000028 <main>
2000025c:	00100073          	ebreak
20000260:	0000006f          	j	20000260 <_trm_init+0x1c>
