
/home/meowth/ysyx/ysyx-workbench/am-kernels/tests/cpu-tests/build/movsx-riscv32e-ysyx-soc.elf:     file format elf32-littleriscv


Disassembly of section .text:

20000000 <_start>:
20000000:	00000413          	li	s0,0
20000004:	ef001117          	auipc	sp,0xef001
20000008:	83c10113          	addi	sp,sp,-1988 # f000840 <_end>
2000000c:	20c000ef          	jal	ra,20000218 <_trm_init>

20000010 <check>:
20000010:	00050463          	beqz	a0,20000018 <check+0x8>
20000014:	00008067          	ret
20000018:	ff410113          	addi	sp,sp,-12
2000001c:	00100513          	li	a0,1
20000020:	00112423          	sw	ra,8(sp)
20000024:	1ec000ef          	jal	ra,20000210 <halt>

20000028 <main>:
20000028:	ff410113          	addi	sp,sp,-12
2000002c:	00812223          	sw	s0,4(sp)
20000030:	ef000417          	auipc	s0,0xef000
20000034:	fd040413          	addi	s0,s0,-48 # f000000 <A>
20000038:	00042023          	sw	zero,0(s0)
2000003c:	00100793          	li	a5,1
20000040:	00f42223          	sw	a5,4(s0)
20000044:	00200793          	li	a5,2
20000048:	00f42423          	sw	a5,8(s0)
2000004c:	00300793          	li	a5,3
20000050:	00f42623          	sw	a5,12(s0)
20000054:	00400793          	li	a5,4
20000058:	00f42823          	sw	a5,16(s0)
2000005c:	00c42703          	lw	a4,12(s0)
20000060:	00112423          	sw	ra,8(sp)
20000064:	ef000797          	auipc	a5,0xef000
20000068:	fd078793          	addi	a5,a5,-48 # f000034 <b>
2000006c:	00912023          	sw	s1,0(sp)
20000070:	00e7a023          	sw	a4,0(a5)
20000074:	0007a703          	lw	a4,0(a5)
20000078:	ef000497          	auipc	s1,0xef000
2000007c:	fb048493          	addi	s1,s1,-80 # f000028 <C>
20000080:	00e42a23          	sw	a4,20(s0)
20000084:	06100713          	li	a4,97
20000088:	00e48023          	sb	a4,0(s1)
2000008c:	0004c503          	lbu	a0,0(s1)
20000090:	01851513          	slli	a0,a0,0x18
20000094:	41855513          	srai	a0,a0,0x18
20000098:	f9f50513          	addi	a0,a0,-97
2000009c:	00153513          	seqz	a0,a0
200000a0:	f71ff0ef          	jal	ra,20000010 <check>
200000a4:	0004c703          	lbu	a4,0(s1)
200000a8:	01871713          	slli	a4,a4,0x18
200000ac:	41875713          	srai	a4,a4,0x18
200000b0:	00e480a3          	sb	a4,1(s1)
200000b4:	0014c503          	lbu	a0,1(s1)
200000b8:	01851513          	slli	a0,a0,0x18
200000bc:	41855513          	srai	a0,a0,0x18
200000c0:	f9f50513          	addi	a0,a0,-97
200000c4:	00153513          	seqz	a0,a0
200000c8:	f49ff0ef          	jal	ra,20000010 <check>
200000cc:	0004c703          	lbu	a4,0(s1)
200000d0:	01871713          	slli	a4,a4,0x18
200000d4:	41875713          	srai	a4,a4,0x18
200000d8:	00e42023          	sw	a4,0(s0)
200000dc:	00042503          	lw	a0,0(s0)
200000e0:	f9f50513          	addi	a0,a0,-97
200000e4:	00153513          	seqz	a0,a0
200000e8:	f29ff0ef          	jal	ra,20000010 <check>
200000ec:	f8000713          	li	a4,-128
200000f0:	00e480a3          	sb	a4,1(s1)
200000f4:	0014c703          	lbu	a4,1(s1)
200000f8:	01871713          	slli	a4,a4,0x18
200000fc:	41875713          	srai	a4,a4,0x18
20000100:	00e42023          	sw	a4,0(s0)
20000104:	00442503          	lw	a0,4(s0)
20000108:	fff50513          	addi	a0,a0,-1
2000010c:	00153513          	seqz	a0,a0
20000110:	f01ff0ef          	jal	ra,20000010 <check>
20000114:	00842503          	lw	a0,8(s0)
20000118:	ffe50513          	addi	a0,a0,-2
2000011c:	00153513          	seqz	a0,a0
20000120:	ef1ff0ef          	jal	ra,20000010 <check>
20000124:	00c42503          	lw	a0,12(s0)
20000128:	ffd50513          	addi	a0,a0,-3
2000012c:	00153513          	seqz	a0,a0
20000130:	ee1ff0ef          	jal	ra,20000010 <check>
20000134:	01042503          	lw	a0,16(s0)
20000138:	ffc50513          	addi	a0,a0,-4
2000013c:	00153513          	seqz	a0,a0
20000140:	ed1ff0ef          	jal	ra,20000010 <check>
20000144:	ef000797          	auipc	a5,0xef000
20000148:	ef078793          	addi	a5,a5,-272 # f000034 <b>
2000014c:	0007a503          	lw	a0,0(a5)
20000150:	ffd50513          	addi	a0,a0,-3
20000154:	00153513          	seqz	a0,a0
20000158:	eb9ff0ef          	jal	ra,20000010 <check>
2000015c:	01442503          	lw	a0,20(s0)
20000160:	ffd50513          	addi	a0,a0,-3
20000164:	00153513          	seqz	a0,a0
20000168:	ea9ff0ef          	jal	ra,20000010 <check>
2000016c:	0014c503          	lbu	a0,1(s1)
20000170:	01851513          	slli	a0,a0,0x18
20000174:	41855513          	srai	a0,a0,0x18
20000178:	08050513          	addi	a0,a0,128
2000017c:	00153513          	seqz	a0,a0
20000180:	e91ff0ef          	jal	ra,20000010 <check>
20000184:	00042503          	lw	a0,0(s0)
20000188:	08050513          	addi	a0,a0,128
2000018c:	00153513          	seqz	a0,a0
20000190:	e81ff0ef          	jal	ra,20000010 <check>
20000194:	00812083          	lw	ra,8(sp)
20000198:	00412403          	lw	s0,4(sp)
2000019c:	00012483          	lw	s1,0(sp)
200001a0:	00000513          	li	a0,0
200001a4:	00c10113          	addi	sp,sp,12
200001a8:	00008067          	ret

200001ac <bootloader_load>:
200001ac:	ef000797          	auipc	a5,0xef000
200001b0:	e5478793          	addi	a5,a5,-428 # f000000 <A>
200001b4:	ef000717          	auipc	a4,0xef000
200001b8:	e4c70713          	addi	a4,a4,-436 # f000000 <A>
200001bc:	40e78633          	sub	a2,a5,a4
200001c0:	02e78263          	beq	a5,a4,200001e4 <bootloader_load+0x38>
200001c4:	00000797          	auipc	a5,0x0
200001c8:	0b478793          	addi	a5,a5,180 # 20000278 <_erodata>
200001cc:	00f60633          	add	a2,a2,a5
200001d0:	0007c683          	lbu	a3,0(a5)
200001d4:	00178793          	addi	a5,a5,1
200001d8:	00170713          	addi	a4,a4,1
200001dc:	fed70fa3          	sb	a3,-1(a4)
200001e0:	fec798e3          	bne	a5,a2,200001d0 <bootloader_load+0x24>
200001e4:	ef000697          	auipc	a3,0xef000
200001e8:	e5468693          	addi	a3,a3,-428 # f000038 <_bss_end>
200001ec:	ef000797          	auipc	a5,0xef000
200001f0:	e1478793          	addi	a5,a5,-492 # f000000 <A>
200001f4:	40f68733          	sub	a4,a3,a5
200001f8:	00f68a63          	beq	a3,a5,2000020c <bootloader_load+0x60>
200001fc:	00e78733          	add	a4,a5,a4
20000200:	00078023          	sb	zero,0(a5)
20000204:	00178793          	addi	a5,a5,1
20000208:	fef71ce3          	bne	a4,a5,20000200 <bootloader_load+0x54>
2000020c:	00008067          	ret

20000210 <halt>:
20000210:	00100073          	ebreak
20000214:	0000006f          	j	20000214 <halt+0x4>

20000218 <_trm_init>:
20000218:	ff410113          	addi	sp,sp,-12
2000021c:	00112423          	sw	ra,8(sp)
20000220:	f8dff0ef          	jal	ra,200001ac <bootloader_load>
20000224:	00000517          	auipc	a0,0x0
20000228:	01450513          	addi	a0,a0,20 # 20000238 <_etext>
2000022c:	dfdff0ef          	jal	ra,20000028 <main>
20000230:	00100073          	ebreak
20000234:	0000006f          	j	20000234 <_trm_init+0x1c>
