
/home/meowth/ysyx/ysyx-workbench/am-kernels/tests/cpu-tests/build/string-riscv32e-ysyx-soc.elf:     file format elf32-littleriscv


Disassembly of section .text:

20000000 <_start>:
20000000:	00000413          	li	s0,0
20000004:	ef001117          	auipc	sp,0xef001
20000008:	83c10113          	addi	sp,sp,-1988 # f000840 <_end>
2000000c:	188000ef          	jal	ra,20000194 <_trm_init>

20000010 <check>:
20000010:	00050463          	beqz	a0,20000018 <check+0x8>
20000014:	00008067          	ret
20000018:	ff410113          	addi	sp,sp,-12
2000001c:	00100513          	li	a0,1
20000020:	00112423          	sw	ra,8(sp)
20000024:	168000ef          	jal	ra,2000018c <halt>

20000028 <main>:
20000028:	ff410113          	addi	sp,sp,-12
2000002c:	00812223          	sw	s0,4(sp)
20000030:	ef000417          	auipc	s0,0xef000
20000034:	fd040413          	addi	s0,s0,-48 # f000000 <s>
20000038:	00842583          	lw	a1,8(s0)
2000003c:	00042503          	lw	a0,0(s0)
20000040:	00112423          	sw	ra,8(sp)
20000044:	00912023          	sw	s1,0(sp)
20000048:	230000ef          	jal	ra,20000278 <strcmp>
2000004c:	00153513          	seqz	a0,a0
20000050:	fc1ff0ef          	jal	ra,20000010 <check>
20000054:	00442583          	lw	a1,4(s0)
20000058:	00042503          	lw	a0,0(s0)
2000005c:	ef000497          	auipc	s1,0xef000
20000060:	fc448493          	addi	s1,s1,-60 # f000020 <str>
20000064:	214000ef          	jal	ra,20000278 <strcmp>
20000068:	01f55513          	srli	a0,a0,0x1f
2000006c:	fa5ff0ef          	jal	ra,20000010 <check>
20000070:	00442583          	lw	a1,4(s0)
20000074:	00042503          	lw	a0,0(s0)
20000078:	00158593          	addi	a1,a1,1
2000007c:	00150513          	addi	a0,a0,1
20000080:	1f8000ef          	jal	ra,20000278 <strcmp>
20000084:	01f55513          	srli	a0,a0,0x1f
20000088:	f89ff0ef          	jal	ra,20000010 <check>
2000008c:	00442583          	lw	a1,4(s0)
20000090:	00042503          	lw	a0,0(s0)
20000094:	00258593          	addi	a1,a1,2
20000098:	00250513          	addi	a0,a0,2
2000009c:	1dc000ef          	jal	ra,20000278 <strcmp>
200000a0:	01f55513          	srli	a0,a0,0x1f
200000a4:	f6dff0ef          	jal	ra,20000010 <check>
200000a8:	00442583          	lw	a1,4(s0)
200000ac:	00042503          	lw	a0,0(s0)
200000b0:	00358593          	addi	a1,a1,3
200000b4:	00350513          	addi	a0,a0,3
200000b8:	1c0000ef          	jal	ra,20000278 <strcmp>
200000bc:	01f55513          	srli	a0,a0,0x1f
200000c0:	f51ff0ef          	jal	ra,20000010 <check>
200000c4:	ef000597          	auipc	a1,0xef000
200000c8:	f5458593          	addi	a1,a1,-172 # f000018 <str1>
200000cc:	00048513          	mv	a0,s1
200000d0:	104000ef          	jal	ra,200001d4 <strcpy>
200000d4:	00c42583          	lw	a1,12(s0)
200000d8:	138000ef          	jal	ra,20000210 <strcat>
200000dc:	01042583          	lw	a1,16(s0)
200000e0:	198000ef          	jal	ra,20000278 <strcmp>
200000e4:	00153513          	seqz	a0,a0
200000e8:	f29ff0ef          	jal	ra,20000010 <check>
200000ec:	00500613          	li	a2,5
200000f0:	02300593          	li	a1,35
200000f4:	00048513          	mv	a0,s1
200000f8:	1b8000ef          	jal	ra,200002b0 <memset>
200000fc:	01442583          	lw	a1,20(s0)
20000100:	00500613          	li	a2,5
20000104:	1cc000ef          	jal	ra,200002d0 <memcmp>
20000108:	00153513          	seqz	a0,a0
2000010c:	f05ff0ef          	jal	ra,20000010 <check>
20000110:	00812083          	lw	ra,8(sp)
20000114:	00412403          	lw	s0,4(sp)
20000118:	00012483          	lw	s1,0(sp)
2000011c:	00000513          	li	a0,0
20000120:	00c10113          	addi	sp,sp,12
20000124:	00008067          	ret

20000128 <bootloader_load>:
20000128:	ef000797          	auipc	a5,0xef000
2000012c:	ef678793          	addi	a5,a5,-266 # f00001e <_edata>
20000130:	ef000717          	auipc	a4,0xef000
20000134:	ed070713          	addi	a4,a4,-304 # f000000 <s>
20000138:	40e78633          	sub	a2,a5,a4
2000013c:	02e78263          	beq	a5,a4,20000160 <bootloader_load+0x38>
20000140:	00000797          	auipc	a5,0x0
20000144:	28078793          	addi	a5,a5,640 # 200003c0 <_erodata>
20000148:	00f60633          	add	a2,a2,a5
2000014c:	0007c683          	lbu	a3,0(a5)
20000150:	00178793          	addi	a5,a5,1
20000154:	00170713          	addi	a4,a4,1
20000158:	fed70fa3          	sb	a3,-1(a4)
2000015c:	fec798e3          	bne	a5,a2,2000014c <bootloader_load+0x24>
20000160:	ef000697          	auipc	a3,0xef000
20000164:	ed468693          	addi	a3,a3,-300 # f000034 <_bss_end>
20000168:	ef000797          	auipc	a5,0xef000
2000016c:	eb878793          	addi	a5,a5,-328 # f000020 <str>
20000170:	40f68733          	sub	a4,a3,a5
20000174:	00f68a63          	beq	a3,a5,20000188 <bootloader_load+0x60>
20000178:	00e78733          	add	a4,a5,a4
2000017c:	00078023          	sb	zero,0(a5)
20000180:	00178793          	addi	a5,a5,1
20000184:	fef71ce3          	bne	a4,a5,2000017c <bootloader_load+0x54>
20000188:	00008067          	ret

2000018c <halt>:
2000018c:	00100073          	ebreak
20000190:	0000006f          	j	20000190 <halt+0x4>

20000194 <_trm_init>:
20000194:	ff410113          	addi	sp,sp,-12
20000198:	00112423          	sw	ra,8(sp)
2000019c:	f8dff0ef          	jal	ra,20000128 <bootloader_load>
200001a0:	100007b7          	lui	a5,0x10000
200001a4:	f8000713          	li	a4,-128
200001a8:	00e781a3          	sb	a4,3(a5) # 10000003 <_heap_end+0xffe004>
200001ac:	00100713          	li	a4,1
200001b0:	00e78023          	sb	a4,0(a5)
200001b4:	000780a3          	sb	zero,1(a5)
200001b8:	00300713          	li	a4,3
200001bc:	00e781a3          	sb	a4,3(a5)
200001c0:	00000517          	auipc	a0,0x0
200001c4:	1c050513          	addi	a0,a0,448 # 20000380 <mainargs>
200001c8:	e61ff0ef          	jal	ra,20000028 <main>
200001cc:	00100073          	ebreak
200001d0:	0000006f          	j	200001d0 <_trm_init+0x3c>

200001d4 <strcpy>:
200001d4:	0005c703          	lbu	a4,0(a1)
200001d8:	02070663          	beqz	a4,20000204 <strcpy+0x30>
200001dc:	00000793          	li	a5,0
200001e0:	00f506b3          	add	a3,a0,a5
200001e4:	00178793          	addi	a5,a5,1
200001e8:	00e68023          	sb	a4,0(a3)
200001ec:	00f58733          	add	a4,a1,a5
200001f0:	00074703          	lbu	a4,0(a4)
200001f4:	fe0716e3          	bnez	a4,200001e0 <strcpy+0xc>
200001f8:	00f507b3          	add	a5,a0,a5
200001fc:	00078023          	sb	zero,0(a5)
20000200:	00008067          	ret
20000204:	00050793          	mv	a5,a0
20000208:	00078023          	sb	zero,0(a5)
2000020c:	00008067          	ret

20000210 <strcat>:
20000210:	00054783          	lbu	a5,0(a0)
20000214:	04078c63          	beqz	a5,2000026c <strcat+0x5c>
20000218:	00150713          	addi	a4,a0,1
2000021c:	00000613          	li	a2,0
20000220:	00074683          	lbu	a3,0(a4)
20000224:	00070793          	mv	a5,a4
20000228:	00160613          	addi	a2,a2,1
2000022c:	00170713          	addi	a4,a4,1
20000230:	fe0698e3          	bnez	a3,20000220 <strcat+0x10>
20000234:	0005c683          	lbu	a3,0(a1)
20000238:	02068663          	beqz	a3,20000264 <strcat+0x54>
2000023c:	00000793          	li	a5,0
20000240:	00c78733          	add	a4,a5,a2
20000244:	00e50733          	add	a4,a0,a4
20000248:	00178793          	addi	a5,a5,1
2000024c:	00d70023          	sb	a3,0(a4)
20000250:	00f58733          	add	a4,a1,a5
20000254:	00074683          	lbu	a3,0(a4)
20000258:	fe0694e3          	bnez	a3,20000240 <strcat+0x30>
2000025c:	00c787b3          	add	a5,a5,a2
20000260:	00f507b3          	add	a5,a0,a5
20000264:	00078023          	sb	zero,0(a5)
20000268:	00008067          	ret
2000026c:	00050793          	mv	a5,a0
20000270:	00000613          	li	a2,0
20000274:	fc1ff06f          	j	20000234 <strcat+0x24>

20000278 <strcmp>:
20000278:	00054703          	lbu	a4,0(a0)
2000027c:	0005c783          	lbu	a5,0(a1)
20000280:	00150513          	addi	a0,a0,1
20000284:	00071863          	bnez	a4,20000294 <strcmp+0x1c>
20000288:	00f037b3          	snez	a5,a5
2000028c:	40f00533          	neg	a0,a5
20000290:	00008067          	ret
20000294:	00158593          	addi	a1,a1,1
20000298:	fef700e3          	beq	a4,a5,20000278 <strcmp>
2000029c:	00f76663          	bltu	a4,a5,200002a8 <strcmp+0x30>
200002a0:	00100513          	li	a0,1
200002a4:	00008067          	ret
200002a8:	fff00513          	li	a0,-1
200002ac:	00008067          	ret

200002b0 <memset>:
200002b0:	0ff5f593          	zext.b	a1,a1
200002b4:	00050793          	mv	a5,a0
200002b8:	00a60733          	add	a4,a2,a0
200002bc:	00060863          	beqz	a2,200002cc <memset+0x1c>
200002c0:	00b78023          	sb	a1,0(a5)
200002c4:	00178793          	addi	a5,a5,1
200002c8:	fee79ce3          	bne	a5,a4,200002c0 <memset+0x10>
200002cc:	00008067          	ret

200002d0 <memcmp>:
200002d0:	02060a63          	beqz	a2,20000304 <memcmp+0x34>
200002d4:	00c50633          	add	a2,a0,a2
200002d8:	0080006f          	j	200002e0 <memcmp+0x10>
200002dc:	02c50463          	beq	a0,a2,20000304 <memcmp+0x34>
200002e0:	00054783          	lbu	a5,0(a0)
200002e4:	0005c703          	lbu	a4,0(a1)
200002e8:	00150513          	addi	a0,a0,1
200002ec:	00158593          	addi	a1,a1,1
200002f0:	fee786e3          	beq	a5,a4,200002dc <memcmp+0xc>
200002f4:	00e7b533          	sltu	a0,a5,a4
200002f8:	40a00533          	neg	a0,a0
200002fc:	00156513          	ori	a0,a0,1
20000300:	00008067          	ret
20000304:	00000513          	li	a0,0
20000308:	00008067          	ret
