
/home/meowth/ysyx/ysyx-workbench/am-kernels/kernels/yield-os/build/yield-os-riscv32-nemu.elf:     file format elf32-littleriscv


Disassembly of section .text:

80000000 <_start>:
80000000:	00000413          	li	s0,0
80000004:	00021117          	auipc	sp,0x21
80000008:	ffc10113          	addi	sp,sp,-4 # 80021000 <_end>
8000000c:	184000ef          	jal	ra,80000190 <_trm_init>

80000010 <schedule>:
80000010:	00001717          	auipc	a4,0x1
80000014:	a1870713          	addi	a4,a4,-1512 # 80000a28 <current>
80000018:	00072683          	lw	a3,0(a4)
8000001c:	00001617          	auipc	a2,0x1
80000020:	a1060613          	addi	a2,a2,-1520 # 80000a2c <pcb>
80000024:	00009797          	auipc	a5,0x9
80000028:	a0878793          	addi	a5,a5,-1528 # 80008a2c <pcb+0x8000>
8000002c:	00b6a023          	sw	a1,0(a3)
80000030:	00c68463          	beq	a3,a2,80000038 <schedule+0x28>
80000034:	00060793          	mv	a5,a2
80000038:	0007a503          	lw	a0,0(a5)
8000003c:	00f72023          	sw	a5,0(a4)
80000040:	00008067          	ret

80000044 <f>:
80000044:	fe010113          	addi	sp,sp,-32
80000048:	00112e23          	sw	ra,28(sp)
8000004c:	00812c23          	sw	s0,24(sp)
80000050:	00912a23          	sw	s1,20(sp)
80000054:	00200793          	li	a5,2
80000058:	00050713          	mv	a4,a0
8000005c:	00a7f463          	bgeu	a5,a0,80000064 <f+0x20>
80000060:	00000713          	li	a4,0
80000064:	00001797          	auipc	a5,0x1
80000068:	81078793          	addi	a5,a5,-2032 # 80000874 <_etext>
8000006c:	00e787b3          	add	a5,a5,a4
80000070:	0007c483          	lbu	s1,0(a5)
80000074:	00018437          	lui	s0,0x18
80000078:	69f40413          	addi	s0,s0,1695 # 1869f <_entry_offset+0x1869f>
8000007c:	00048513          	mv	a0,s1
80000080:	0f8000ef          	jal	ra,80000178 <putch>
80000084:	00012623          	sw	zero,12(sp)
80000088:	00c12783          	lw	a5,12(sp)
8000008c:	00f44c63          	blt	s0,a5,800000a4 <f+0x60>
80000090:	00c12783          	lw	a5,12(sp)
80000094:	00178793          	addi	a5,a5,1
80000098:	00f12623          	sw	a5,12(sp)
8000009c:	00c12783          	lw	a5,12(sp)
800000a0:	fef458e3          	bge	s0,a5,80000090 <f+0x4c>
800000a4:	208000ef          	jal	ra,800002ac <yield>
800000a8:	fd5ff06f          	j	8000007c <f+0x38>

800000ac <main>:
800000ac:	fe010113          	addi	sp,sp,-32
800000b0:	00000517          	auipc	a0,0x0
800000b4:	f6050513          	addi	a0,a0,-160 # 80000010 <schedule>
800000b8:	00112e23          	sw	ra,28(sp)
800000bc:	00812c23          	sw	s0,24(sp)
800000c0:	00912a23          	sw	s1,20(sp)
800000c4:	00009417          	auipc	s0,0x9
800000c8:	96840413          	addi	s0,s0,-1688 # 80008a2c <pcb+0x8000>
800000cc:	19c000ef          	jal	ra,80000268 <cte_init>
800000d0:	00001497          	auipc	s1,0x1
800000d4:	95c48493          	addi	s1,s1,-1700 # 80000a2c <pcb>
800000d8:	00040593          	mv	a1,s0
800000dc:	00100693          	li	a3,1
800000e0:	00000617          	auipc	a2,0x0
800000e4:	f6460613          	addi	a2,a2,-156 # 80000044 <f>
800000e8:	00048513          	mv	a0,s1
800000ec:	19c000ef          	jal	ra,80000288 <kcontext>
800000f0:	00050793          	mv	a5,a0
800000f4:	00200693          	li	a3,2
800000f8:	00000617          	auipc	a2,0x0
800000fc:	f4c60613          	addi	a2,a2,-180 # 80000044 <f>
80000100:	00011597          	auipc	a1,0x11
80000104:	92c58593          	addi	a1,a1,-1748 # 80010a2c <pcb_boot>
80000108:	00040513          	mv	a0,s0
8000010c:	00f4a023          	sw	a5,0(s1)
80000110:	178000ef          	jal	ra,80000288 <kcontext>
80000114:	00a42023          	sw	a0,0(s0)
80000118:	194000ef          	jal	ra,800002ac <yield>
8000011c:	00000417          	auipc	s0,0x0
80000120:	75c40413          	addi	s0,s0,1884 # 80000878 <_etext+0x4>
80000124:	04100513          	li	a0,65
80000128:	00140413          	addi	s0,s0,1
8000012c:	04c000ef          	jal	ra,80000178 <putch>
80000130:	00044503          	lbu	a0,0(s0)
80000134:	fe051ae3          	bnez	a0,80000128 <main+0x7c>
80000138:	00000417          	auipc	s0,0x0
8000013c:	74c40413          	addi	s0,s0,1868 # 80000884 <_etext+0x10>
80000140:	05300513          	li	a0,83
80000144:	00140413          	addi	s0,s0,1
80000148:	030000ef          	jal	ra,80000178 <putch>
8000014c:	00044503          	lbu	a0,0(s0)
80000150:	fe051ae3          	bnez	a0,80000144 <main+0x98>
80000154:	00000417          	auipc	s0,0x0
80000158:	74840413          	addi	s0,s0,1864 # 8000089c <_etext+0x28>
8000015c:	02000513          	li	a0,32
80000160:	00140413          	addi	s0,s0,1
80000164:	014000ef          	jal	ra,80000178 <putch>
80000168:	00044503          	lbu	a0,0(s0)
8000016c:	fe051ae3          	bnez	a0,80000160 <main+0xb4>
80000170:	00100513          	li	a0,1
80000174:	010000ef          	jal	ra,80000184 <halt>

80000178 <putch>:
80000178:	a00007b7          	lui	a5,0xa0000
8000017c:	3ea78c23          	sb	a0,1016(a5) # a00003f8 <_end+0x1ffdf3f8>
80000180:	00008067          	ret

80000184 <halt>:
80000184:	00050513          	mv	a0,a0
80000188:	00100073          	ebreak
8000018c:	0000006f          	j	8000018c <halt+0x8>

80000190 <_trm_init>:
80000190:	ff010113          	addi	sp,sp,-16
80000194:	00000517          	auipc	a0,0x0
80000198:	75c50513          	addi	a0,a0,1884 # 800008f0 <mainargs>
8000019c:	00112623          	sw	ra,12(sp)
800001a0:	f0dff0ef          	jal	ra,800000ac <main>
800001a4:	00050513          	mv	a0,a0
800001a8:	00100073          	ebreak
800001ac:	0000006f          	j	800001ac <_trm_init+0x1c>

800001b0 <__am_irq_handle>:
800001b0:	00019797          	auipc	a5,0x19
800001b4:	87c7a783          	lw	a5,-1924(a5) # 80018a2c <user_handler>
800001b8:	00050593          	mv	a1,a0
800001bc:	08078463          	beqz	a5,80000244 <__am_irq_handle+0x94>
800001c0:	08052683          	lw	a3,128(a0)
800001c4:	fd010113          	addi	sp,sp,-48
800001c8:	02112623          	sw	ra,44(sp)
800001cc:	00012a23          	sw	zero,20(sp)
800001d0:	00012c23          	sw	zero,24(sp)
800001d4:	00012e23          	sw	zero,28(sp)
800001d8:	00b00713          	li	a4,11
800001dc:	04e68263          	beq	a3,a4,80000220 <__am_irq_handle+0x70>
800001e0:	00400713          	li	a4,4
800001e4:	00e12823          	sw	a4,16(sp)
800001e8:	01012703          	lw	a4,16(sp)
800001ec:	00010513          	mv	a0,sp
800001f0:	00e12023          	sw	a4,0(sp)
800001f4:	01412703          	lw	a4,20(sp)
800001f8:	00e12223          	sw	a4,4(sp)
800001fc:	01812703          	lw	a4,24(sp)
80000200:	00e12423          	sw	a4,8(sp)
80000204:	01c12703          	lw	a4,28(sp)
80000208:	00e12623          	sw	a4,12(sp)
8000020c:	000780e7          	jalr	a5
80000210:	02050c63          	beqz	a0,80000248 <__am_irq_handle+0x98>
80000214:	02c12083          	lw	ra,44(sp)
80000218:	03010113          	addi	sp,sp,48
8000021c:	00008067          	ret
80000220:	04452703          	lw	a4,68(a0)
80000224:	08852683          	lw	a3,136(a0)
80000228:	00170713          	addi	a4,a4,1
8000022c:	00e03733          	snez	a4,a4
80000230:	00170713          	addi	a4,a4,1
80000234:	00468693          	addi	a3,a3,4
80000238:	00e12823          	sw	a4,16(sp)
8000023c:	08d52423          	sw	a3,136(a0)
80000240:	fa9ff06f          	j	800001e8 <__am_irq_handle+0x38>
80000244:	00008067          	ret
80000248:	01200613          	li	a2,18
8000024c:	00000597          	auipc	a1,0x0
80000250:	6e458593          	addi	a1,a1,1764 # 80000930 <mainargs+0x40>
80000254:	00000517          	auipc	a0,0x0
80000258:	72850513          	addi	a0,a0,1832 # 8000097c <mainargs+0x8c>
8000025c:	19c000ef          	jal	ra,800003f8 <printf>
80000260:	00100513          	li	a0,1
80000264:	f21ff0ef          	jal	ra,80000184 <halt>

80000268 <cte_init>:
80000268:	00050793          	mv	a5,a0
8000026c:	00000717          	auipc	a4,0x0
80000270:	04c70713          	addi	a4,a4,76 # 800002b8 <__am_asm_trap>
80000274:	30571073          	csrw	mtvec,a4
80000278:	00100513          	li	a0,1
8000027c:	00018717          	auipc	a4,0x18
80000280:	7af72823          	sw	a5,1968(a4) # 80018a2c <user_handler>
80000284:	00008067          	ret

80000288 <kcontext>:
80000288:	000027b7          	lui	a5,0x2
8000028c:	80078793          	addi	a5,a5,-2048 # 1800 <_entry_offset+0x1800>
80000290:	ff010113          	addi	sp,sp,-16
80000294:	fec5ac23          	sw	a2,-8(a1)
80000298:	fef5aa23          	sw	a5,-12(a1)
8000029c:	f8d5ac23          	sw	a3,-104(a1)
800002a0:	f7058513          	addi	a0,a1,-144
800002a4:	01010113          	addi	sp,sp,16
800002a8:	00008067          	ret

800002ac <yield>:
800002ac:	fff00893          	li	a7,-1
800002b0:	00000073          	ecall
800002b4:	00008067          	ret

800002b8 <__am_asm_trap>:
800002b8:	f7410113          	addi	sp,sp,-140
800002bc:	00112223          	sw	ra,4(sp)
800002c0:	00312623          	sw	gp,12(sp)
800002c4:	00412823          	sw	tp,16(sp)
800002c8:	00512a23          	sw	t0,20(sp)
800002cc:	00612c23          	sw	t1,24(sp)
800002d0:	00712e23          	sw	t2,28(sp)
800002d4:	02812023          	sw	s0,32(sp)
800002d8:	02912223          	sw	s1,36(sp)
800002dc:	02a12423          	sw	a0,40(sp)
800002e0:	02b12623          	sw	a1,44(sp)
800002e4:	02c12823          	sw	a2,48(sp)
800002e8:	02d12a23          	sw	a3,52(sp)
800002ec:	02e12c23          	sw	a4,56(sp)
800002f0:	02f12e23          	sw	a5,60(sp)
800002f4:	05012023          	sw	a6,64(sp)
800002f8:	05112223          	sw	a7,68(sp)
800002fc:	05212423          	sw	s2,72(sp)
80000300:	05312623          	sw	s3,76(sp)
80000304:	05412823          	sw	s4,80(sp)
80000308:	05512a23          	sw	s5,84(sp)
8000030c:	05612c23          	sw	s6,88(sp)
80000310:	05712e23          	sw	s7,92(sp)
80000314:	07812023          	sw	s8,96(sp)
80000318:	07912223          	sw	s9,100(sp)
8000031c:	07a12423          	sw	s10,104(sp)
80000320:	07b12623          	sw	s11,108(sp)
80000324:	07c12823          	sw	t3,112(sp)
80000328:	07d12a23          	sw	t4,116(sp)
8000032c:	07e12c23          	sw	t5,120(sp)
80000330:	07f12e23          	sw	t6,124(sp)
80000334:	342022f3          	csrr	t0,mcause
80000338:	30002373          	csrr	t1,mstatus
8000033c:	341023f3          	csrr	t2,mepc
80000340:	08512023          	sw	t0,128(sp)
80000344:	08612223          	sw	t1,132(sp)
80000348:	08712423          	sw	t2,136(sp)
8000034c:	00020537          	lui	a0,0x20
80000350:	00a36333          	or	t1,t1,a0
80000354:	30031073          	csrw	mstatus,t1
80000358:	00010513          	mv	a0,sp
8000035c:	e55ff0ef          	jal	ra,800001b0 <__am_irq_handle>
80000360:	00050113          	mv	sp,a0
80000364:	08412303          	lw	t1,132(sp)
80000368:	08812383          	lw	t2,136(sp)
8000036c:	30031073          	csrw	mstatus,t1
80000370:	34139073          	csrw	mepc,t2
80000374:	00412083          	lw	ra,4(sp)
80000378:	00c12183          	lw	gp,12(sp)
8000037c:	01012203          	lw	tp,16(sp)
80000380:	01412283          	lw	t0,20(sp)
80000384:	01812303          	lw	t1,24(sp)
80000388:	01c12383          	lw	t2,28(sp)
8000038c:	02012403          	lw	s0,32(sp)
80000390:	02412483          	lw	s1,36(sp)
80000394:	02812503          	lw	a0,40(sp)
80000398:	02c12583          	lw	a1,44(sp)
8000039c:	03012603          	lw	a2,48(sp)
800003a0:	03412683          	lw	a3,52(sp)
800003a4:	03812703          	lw	a4,56(sp)
800003a8:	03c12783          	lw	a5,60(sp)
800003ac:	04012803          	lw	a6,64(sp)
800003b0:	04412883          	lw	a7,68(sp)
800003b4:	04812903          	lw	s2,72(sp)
800003b8:	04c12983          	lw	s3,76(sp)
800003bc:	05012a03          	lw	s4,80(sp)
800003c0:	05412a83          	lw	s5,84(sp)
800003c4:	05812b03          	lw	s6,88(sp)
800003c8:	05c12b83          	lw	s7,92(sp)
800003cc:	06012c03          	lw	s8,96(sp)
800003d0:	06412c83          	lw	s9,100(sp)
800003d4:	06812d03          	lw	s10,104(sp)
800003d8:	06c12d83          	lw	s11,108(sp)
800003dc:	07012e03          	lw	t3,112(sp)
800003e0:	07412e83          	lw	t4,116(sp)
800003e4:	07812f03          	lw	t5,120(sp)
800003e8:	07c12f83          	lw	t6,124(sp)
800003ec:	08c10113          	addi	sp,sp,140
800003f0:	30200073          	mret
800003f4:	0000                	.2byte	0x0
	...

800003f8 <printf>:
800003f8:	fc010113          	addi	sp,sp,-64
800003fc:	02410313          	addi	t1,sp,36
80000400:	02b12223          	sw	a1,36(sp)
80000404:	02c12423          	sw	a2,40(sp)
80000408:	00050593          	mv	a1,a0
8000040c:	00030613          	mv	a2,t1
80000410:	00000517          	auipc	a0,0x0
80000414:	d6850513          	addi	a0,a0,-664 # 80000178 <putch>
80000418:	00112e23          	sw	ra,28(sp)
8000041c:	02d12623          	sw	a3,44(sp)
80000420:	02e12823          	sw	a4,48(sp)
80000424:	02f12a23          	sw	a5,52(sp)
80000428:	03012c23          	sw	a6,56(sp)
8000042c:	03112e23          	sw	a7,60(sp)
80000430:	00612623          	sw	t1,12(sp)
80000434:	010000ef          	jal	ra,80000444 <vprintf>
80000438:	01c12083          	lw	ra,28(sp)
8000043c:	04010113          	addi	sp,sp,64
80000440:	00008067          	ret

80000444 <vprintf>:
80000444:	f7010113          	addi	sp,sp,-144
80000448:	08112623          	sw	ra,140(sp)
8000044c:	08812423          	sw	s0,136(sp)
80000450:	08912223          	sw	s1,132(sp)
80000454:	09212023          	sw	s2,128(sp)
80000458:	07312e23          	sw	s3,124(sp)
8000045c:	07412c23          	sw	s4,120(sp)
80000460:	07512a23          	sw	s5,116(sp)
80000464:	07612823          	sw	s6,112(sp)
80000468:	07712623          	sw	s7,108(sp)
8000046c:	07812423          	sw	s8,104(sp)
80000470:	07912223          	sw	s9,100(sp)
80000474:	07a12023          	sw	s10,96(sp)
80000478:	05b12e23          	sw	s11,92(sp)
8000047c:	0005c783          	lbu	a5,0(a1)
80000480:	3a078a63          	beqz	a5,80000834 <vprintf+0x3f0>
80000484:	ccccdc37          	lui	s8,0xccccd
80000488:	100009b7          	lui	s3,0x10000
8000048c:	ccdc0493          	addi	s1,s8,-819 # cccccccd <_end+0x4ccabccd>
80000490:	00058413          	mv	s0,a1
80000494:	00050a13          	mv	s4,a0
80000498:	00060a93          	mv	s5,a2
8000049c:	00000913          	li	s2,0
800004a0:	00000d13          	li	s10,0
800004a4:	00000d93          	li	s11,0
800004a8:	02500b93          	li	s7,37
800004ac:	00000c97          	auipc	s9,0x0
800004b0:	530c8c93          	addi	s9,s9,1328 # 800009dc <mainargs+0xec>
800004b4:	01010b13          	addi	s6,sp,16
800004b8:	fff98993          	addi	s3,s3,-1 # fffffff <_entry_offset+0xfffffff>
800004bc:	cccc0c13          	addi	s8,s8,-820
800004c0:	07778063          	beq	a5,s7,80000520 <vprintf+0xdc>
800004c4:	060d9263          	bnez	s11,80000528 <vprintf+0xe4>
800004c8:	00078513          	mv	a0,a5
800004cc:	000a00e7          	jalr	s4
800004d0:	00190913          	addi	s2,s2,1
800004d4:	00144783          	lbu	a5,1(s0)
800004d8:	00140413          	addi	s0,s0,1
800004dc:	fe0792e3          	bnez	a5,800004c0 <vprintf+0x7c>
800004e0:	08c12083          	lw	ra,140(sp)
800004e4:	08812403          	lw	s0,136(sp)
800004e8:	08412483          	lw	s1,132(sp)
800004ec:	07c12983          	lw	s3,124(sp)
800004f0:	07812a03          	lw	s4,120(sp)
800004f4:	07412a83          	lw	s5,116(sp)
800004f8:	07012b03          	lw	s6,112(sp)
800004fc:	06c12b83          	lw	s7,108(sp)
80000500:	06812c03          	lw	s8,104(sp)
80000504:	06412c83          	lw	s9,100(sp)
80000508:	06012d03          	lw	s10,96(sp)
8000050c:	05c12d83          	lw	s11,92(sp)
80000510:	00090513          	mv	a0,s2
80000514:	08012903          	lw	s2,128(sp)
80000518:	09010113          	addi	sp,sp,144
8000051c:	00008067          	ret
80000520:	001dbd93          	seqz	s11,s11
80000524:	01b40433          	add	s0,s0,s11
80000528:	00044783          	lbu	a5,0(s0)
8000052c:	11778663          	beq	a5,s7,80000638 <vprintf+0x1f4>
80000530:	f9d78793          	addi	a5,a5,-99
80000534:	0ff7f793          	zext.b	a5,a5
80000538:	01200713          	li	a4,18
8000053c:	00f76c63          	bltu	a4,a5,80000554 <vprintf+0x110>
80000540:	00279793          	slli	a5,a5,0x2
80000544:	019787b3          	add	a5,a5,s9
80000548:	0007a783          	lw	a5,0(a5)
8000054c:	019787b3          	add	a5,a5,s9
80000550:	00078067          	jr	a5
80000554:	00100d93          	li	s11,1
80000558:	f7dff06f          	j	800004d4 <vprintf+0x90>
8000055c:	00200793          	li	a5,2
80000560:	31a7c663          	blt	a5,s10,8000086c <vprintf+0x428>
80000564:	28fd0863          	beq	s10,a5,800007f4 <vprintf+0x3b0>
80000568:	000aa703          	lw	a4,0(s5)
8000056c:	00000693          	li	a3,0
80000570:	004a8a93          	addi	s5,s5,4
80000574:	00d767b3          	or	a5,a4,a3
80000578:	0c079863          	bnez	a5,80000648 <vprintf+0x204>
8000057c:	03000513          	li	a0,48
80000580:	00190913          	addi	s2,s2,1
80000584:	000a00e7          	jalr	s4
80000588:	00000d13          	li	s10,0
8000058c:	00000d93          	li	s11,0
80000590:	f45ff06f          	j	800004d4 <vprintf+0x90>
80000594:	2c0d1863          	bnez	s10,80000864 <vprintf+0x420>
80000598:	000aa783          	lw	a5,0(s5)
8000059c:	004a8a93          	addi	s5,s5,4
800005a0:	0007c503          	lbu	a0,0(a5)
800005a4:	00f12623          	sw	a5,12(sp)
800005a8:	26050e63          	beqz	a0,80000824 <vprintf+0x3e0>
800005ac:	00090d93          	mv	s11,s2
800005b0:	000a00e7          	jalr	s4
800005b4:	00c12703          	lw	a4,12(sp)
800005b8:	001d8d93          	addi	s11,s11,1
800005bc:	412d87b3          	sub	a5,s11,s2
800005c0:	00f707b3          	add	a5,a4,a5
800005c4:	0007c503          	lbu	a0,0(a5)
800005c8:	fe0514e3          	bnez	a0,800005b0 <vprintf+0x16c>
800005cc:	000d8913          	mv	s2,s11
800005d0:	00000d93          	li	s11,0
800005d4:	f01ff06f          	j	800004d4 <vprintf+0x90>
800005d8:	001d0d13          	addi	s10,s10,1
800005dc:	00100d93          	li	s11,1
800005e0:	ef5ff06f          	j	800004d4 <vprintf+0x90>
800005e4:	00200793          	li	a5,2
800005e8:	25a7ca63          	blt	a5,s10,8000083c <vprintf+0x3f8>
800005ec:	22fd0063          	beq	s10,a5,8000080c <vprintf+0x3c8>
800005f0:	000aad83          	lw	s11,0(s5)
800005f4:	004a8a93          	addi	s5,s5,4
800005f8:	41fdd713          	srai	a4,s11,0x1f
800005fc:	00190d13          	addi	s10,s2,1
80000600:	10074a63          	bltz	a4,80000714 <vprintf+0x2d0>
80000604:	00ede7b3          	or	a5,s11,a4
80000608:	22079263          	bnez	a5,8000082c <vprintf+0x3e8>
8000060c:	03000513          	li	a0,48
80000610:	000a00e7          	jalr	s4
80000614:	000d0913          	mv	s2,s10
80000618:	f71ff06f          	j	80000588 <vprintf+0x144>
8000061c:	240d1063          	bnez	s10,8000085c <vprintf+0x418>
80000620:	000ac503          	lbu	a0,0(s5)
80000624:	00190913          	addi	s2,s2,1
80000628:	004a8a93          	addi	s5,s5,4
8000062c:	000a00e7          	jalr	s4
80000630:	00000d93          	li	s11,0
80000634:	ea1ff06f          	j	800004d4 <vprintf+0x90>
80000638:	02500513          	li	a0,37
8000063c:	000a00e7          	jalr	s4
80000640:	00000d93          	li	s11,0
80000644:	e91ff06f          	j	800004d4 <vprintf+0x90>
80000648:	000b0613          	mv	a2,s6
8000064c:	00000593          	li	a1,0
80000650:	00500813          	li	a6,5
80000654:	00900893          	li	a7,9
80000658:	00469793          	slli	a5,a3,0x4
8000065c:	01c75513          	srli	a0,a4,0x1c
80000660:	00a7e533          	or	a0,a5,a0
80000664:	01357533          	and	a0,a0,s3
80000668:	013777b3          	and	a5,a4,s3
8000066c:	0186d313          	srli	t1,a3,0x18
80000670:	00a787b3          	add	a5,a5,a0
80000674:	006787b3          	add	a5,a5,t1
80000678:	0307f7b3          	remu	a5,a5,a6
8000067c:	00068313          	mv	t1,a3
80000680:	00160613          	addi	a2,a2,1
80000684:	00058d13          	mv	s10,a1
80000688:	00070e13          	mv	t3,a4
8000068c:	00158593          	addi	a1,a1,1
80000690:	40f707b3          	sub	a5,a4,a5
80000694:	00f73533          	sltu	a0,a4,a5
80000698:	40a686b3          	sub	a3,a3,a0
8000069c:	03878eb3          	mul	t4,a5,s8
800006a0:	029686b3          	mul	a3,a3,s1
800006a4:	0297b533          	mulhu	a0,a5,s1
800006a8:	01d686b3          	add	a3,a3,t4
800006ac:	029787b3          	mul	a5,a5,s1
800006b0:	00a686b3          	add	a3,a3,a0
800006b4:	01f69513          	slli	a0,a3,0x1f
800006b8:	0016d693          	srli	a3,a3,0x1
800006bc:	0017d793          	srli	a5,a5,0x1
800006c0:	00f567b3          	or	a5,a0,a5
800006c4:	00279513          	slli	a0,a5,0x2
800006c8:	00f50533          	add	a0,a0,a5
800006cc:	00151513          	slli	a0,a0,0x1
800006d0:	40a70533          	sub	a0,a4,a0
800006d4:	03050513          	addi	a0,a0,48
800006d8:	0ff57513          	zext.b	a0,a0
800006dc:	fea60fa3          	sb	a0,-1(a2)
800006e0:	00078713          	mv	a4,a5
800006e4:	f6031ae3          	bnez	t1,80000658 <vprintf+0x214>
800006e8:	f7c8e8e3          	bltu	a7,t3,80000658 <vprintf+0x214>
800006ec:	01ab0db3          	add	s11,s6,s10
800006f0:	00c0006f          	j	800006fc <vprintf+0x2b8>
800006f4:	fffdc503          	lbu	a0,-1(s11)
800006f8:	00078d93          	mv	s11,a5
800006fc:	000a00e7          	jalr	s4
80000700:	fffd8793          	addi	a5,s11,-1
80000704:	ffbb18e3          	bne	s6,s11,800006f4 <vprintf+0x2b0>
80000708:	00190913          	addi	s2,s2,1
8000070c:	01a90933          	add	s2,s2,s10
80000710:	e79ff06f          	j	80000588 <vprintf+0x144>
80000714:	01b037b3          	snez	a5,s11
80000718:	40e00733          	neg	a4,a4
8000071c:	40f70733          	sub	a4,a4,a5
80000720:	02d00513          	li	a0,45
80000724:	00e12623          	sw	a4,12(sp)
80000728:	000a00e7          	jalr	s4
8000072c:	00c12703          	lw	a4,12(sp)
80000730:	41b00db3          	neg	s11,s11
80000734:	000b0693          	mv	a3,s6
80000738:	00000613          	li	a2,0
8000073c:	00500593          	li	a1,5
80000740:	00471793          	slli	a5,a4,0x4
80000744:	01cdd513          	srli	a0,s11,0x1c
80000748:	00a7e533          	or	a0,a5,a0
8000074c:	01357533          	and	a0,a0,s3
80000750:	013df7b3          	and	a5,s11,s3
80000754:	01875813          	srli	a6,a4,0x18
80000758:	00a787b3          	add	a5,a5,a0
8000075c:	010787b3          	add	a5,a5,a6
80000760:	02b7f7b3          	remu	a5,a5,a1
80000764:	00168693          	addi	a3,a3,1
80000768:	00060913          	mv	s2,a2
8000076c:	00160613          	addi	a2,a2,1
80000770:	40fd87b3          	sub	a5,s11,a5
80000774:	00fdb533          	sltu	a0,s11,a5
80000778:	40a70733          	sub	a4,a4,a0
8000077c:	03878833          	mul	a6,a5,s8
80000780:	02970733          	mul	a4,a4,s1
80000784:	0297b533          	mulhu	a0,a5,s1
80000788:	01070733          	add	a4,a4,a6
8000078c:	029787b3          	mul	a5,a5,s1
80000790:	00a70733          	add	a4,a4,a0
80000794:	01f71513          	slli	a0,a4,0x1f
80000798:	00175713          	srli	a4,a4,0x1
8000079c:	0017d793          	srli	a5,a5,0x1
800007a0:	00f567b3          	or	a5,a0,a5
800007a4:	00279513          	slli	a0,a5,0x2
800007a8:	00f50533          	add	a0,a0,a5
800007ac:	00151513          	slli	a0,a0,0x1
800007b0:	40ad8533          	sub	a0,s11,a0
800007b4:	03050513          	addi	a0,a0,48
800007b8:	0ff57513          	zext.b	a0,a0
800007bc:	00078d93          	mv	s11,a5
800007c0:	fea68fa3          	sb	a0,-1(a3)
800007c4:	00e7e7b3          	or	a5,a5,a4
800007c8:	f6079ce3          	bnez	a5,80000740 <vprintf+0x2fc>
800007cc:	012b0db3          	add	s11,s6,s2
800007d0:	00c0006f          	j	800007dc <vprintf+0x398>
800007d4:	fffdc503          	lbu	a0,-1(s11)
800007d8:	00078d93          	mv	s11,a5
800007dc:	000a00e7          	jalr	s4
800007e0:	fffd8793          	addi	a5,s11,-1
800007e4:	ffbb18e3          	bne	s6,s11,800007d4 <vprintf+0x390>
800007e8:	001d0d13          	addi	s10,s10,1
800007ec:	012d0933          	add	s2,s10,s2
800007f0:	d99ff06f          	j	80000588 <vprintf+0x144>
800007f4:	007a8a93          	addi	s5,s5,7
800007f8:	ff8afa93          	andi	s5,s5,-8
800007fc:	000aa703          	lw	a4,0(s5)
80000800:	004aa683          	lw	a3,4(s5)
80000804:	008a8a93          	addi	s5,s5,8
80000808:	d6dff06f          	j	80000574 <vprintf+0x130>
8000080c:	007a8a93          	addi	s5,s5,7
80000810:	ff8afa93          	andi	s5,s5,-8
80000814:	000aad83          	lw	s11,0(s5)
80000818:	004aa703          	lw	a4,4(s5)
8000081c:	008a8a93          	addi	s5,s5,8
80000820:	dddff06f          	j	800005fc <vprintf+0x1b8>
80000824:	00000d93          	li	s11,0
80000828:	cadff06f          	j	800004d4 <vprintf+0x90>
8000082c:	00090d13          	mv	s10,s2
80000830:	f05ff06f          	j	80000734 <vprintf+0x2f0>
80000834:	00000913          	li	s2,0
80000838:	ca9ff06f          	j	800004e0 <vprintf+0x9c>
8000083c:	03000613          	li	a2,48
80000840:	00000597          	auipc	a1,0x0
80000844:	15858593          	addi	a1,a1,344 # 80000998 <mainargs+0xa8>
80000848:	00000517          	auipc	a0,0x0
8000084c:	13450513          	addi	a0,a0,308 # 8000097c <mainargs+0x8c>
80000850:	ba9ff0ef          	jal	ra,800003f8 <printf>
80000854:	00100513          	li	a0,1
80000858:	92dff0ef          	jal	ra,80000184 <halt>
8000085c:	02a00613          	li	a2,42
80000860:	fe1ff06f          	j	80000840 <vprintf+0x3fc>
80000864:	02100613          	li	a2,33
80000868:	fd9ff06f          	j	80000840 <vprintf+0x3fc>
8000086c:	04c00613          	li	a2,76
80000870:	fd1ff06f          	j	80000840 <vprintf+0x3fc>
